target datalayout = "e-m:e-p270:32:32-p271:32:32-p272:64:64-i64:64-i128:128-f80:128-n8:16:32:64-S128"
target triple = "x86_64-pc-linux-gnu"

%struct.RoleNameItem = type { i32, ptr }

@nrolenames = internal global i32 0, align 4
@rolenames = internal global ptr null, align 8
@.str.760 = private unnamed_addr constant [56 x i8] c"SELECT oid, rolname FROM pg_catalog.pg_roles ORDER BY 1\00", align 1

; Function Attrs: nounwind uwtable
define internal void @collectRoleNames(ptr noundef %0) #0 {
  %2 = alloca ptr, align 8
  %3 = alloca ptr, align 8
  %4 = alloca ptr, align 8
  %5 = alloca i32, align 4
  store ptr %0, ptr %2, align 8
  call void @llvm.lifetime.start.p0(i64 8, ptr %3) #10
  call void @llvm.lifetime.start.p0(i64 8, ptr %4) #10
  call void @llvm.lifetime.start.p0(i64 4, ptr %5) #10
  store ptr @.str.760, ptr %4, align 8
  %6 = load ptr, ptr %2, align 8
  %7 = load ptr, ptr %4, align 8
  %8 = call ptr @ExecuteSqlQuery(ptr noundef %6, ptr noundef %7, i32 noundef 2)
  store ptr %8, ptr %3, align 8
  %9 = load ptr, ptr %3, align 8
  %10 = call i32 @PQntuples(ptr noundef %9)
  store i32 %10, ptr @nrolenames, align 4
  %11 = load i32, ptr @nrolenames, align 4
  %12 = sext i32 %11 to i64
  %13 = mul i64 %12, 16
  %14 = call ptr @pg_malloc(i64 noundef %13)
  store ptr %14, ptr @rolenames, align 8
  store i32 0, ptr %5, align 4
  br label %15

15:                                               ; preds = %39, %1
  %16 = load i32, ptr %5, align 4
  %17 = load i32, ptr @nrolenames, align 4
  %18 = icmp slt i32 %16, %17
  br i1 %18, label %19, label %42

19:                                               ; preds = %15
  %20 = load ptr, ptr %3, align 8
  %21 = load i32, ptr %5, align 4
  %22 = call ptr @PQgetvalue(ptr noundef %20, i32 noundef %21, i32 noundef 0)
  %23 = call i64 @strtoul(ptr noundef %22, ptr noundef null, i32 noundef 10) #10
  %24 = trunc i64 %23 to i32
  %25 = load ptr, ptr @rolenames, align 8
  %26 = load i32, ptr %5, align 4
  %27 = sext i32 %26 to i64
  %28 = getelementptr inbounds %struct.RoleNameItem, ptr %25, i64 %27
  %29 = getelementptr inbounds nuw %struct.RoleNameItem, ptr %28, i32 0, i32 0
  store i32 %24, ptr %29, align 8
  %30 = load ptr, ptr %3, align 8
  %31 = load i32, ptr %5, align 4
  %32 = call ptr @PQgetvalue(ptr noundef %30, i32 noundef %31, i32 noundef 1)
  %33 = call ptr @pg_strdup(ptr noundef %32)
  %34 = load ptr, ptr @rolenames, align 8
  %35 = load i32, ptr %5, align 4
  %36 = sext i32 %35 to i64
  %37 = getelementptr inbounds %struct.RoleNameItem, ptr %34, i64 %36
  %38 = getelementptr inbounds nuw %struct.RoleNameItem, ptr %37, i32 0, i32 1
  store ptr %33, ptr %38, align 8
  br label %39

39:                                               ; preds = %19
  %40 = load i32, ptr %5, align 4
  %41 = add i32 %40, 1
  store i32 %41, ptr %5, align 4
  br label %15, !llvm.loop !18

42:                                               ; preds = %15
  %43 = load ptr, ptr %3, align 8
  call void @PQclear(ptr noundef %43)
  call void @llvm.lifetime.end.p0(i64 4, ptr %5) #10
  call void @llvm.lifetime.end.p0(i64 8, ptr %4) #10
  call void @llvm.lifetime.end.p0(i64 8, ptr %3) #10
  ret void
}