; Function Attrs: nounwind uwtable
define internal fastcc void @collectRoleNames(ptr noundef %0) unnamed_addr #5 {
  %2 = tail call ptr @ExecuteSqlQuery(ptr noundef %0, ptr noundef nonnull @.str.760, i32 noundef 2) #14
  %3 = tail call i32 @PQntuples(ptr noundef %2) #14
  store i32 %3, ptr @nrolenames, align 4
  %4 = sext i32 %3 to i64
  %5 = shl nsw i64 %4, 4
  %6 = tail call ptr @pg_malloc(i64 noundef %5) #14
  store ptr %6, ptr @rolenames, align 8
  %7 = load i32, ptr @nrolenames, align 4
  %8 = icmp sgt i32 %7, 0
  br i1 %8, label %.lr.ph, label %._crit_edge

.lr.ph:                                           ; preds = %1, %.lr.ph
  %indvars.iv = phi i64 [ %indvars.iv.next, %.lr.ph ], [ 0, %1 ]
  %9 = trunc nuw nsw i64 %indvars.iv to i32
  %10 = tail call ptr @PQgetvalue(ptr noundef %2, i32 noundef %9, i32 noundef 0) #14
  %11 = tail call i64 @strtoul(ptr noundef captures(none) %10, ptr noundef null, i32 noundef 10) #14
  %12 = trunc i64 %11 to i32
  %13 = load ptr, ptr @rolenames, align 8
  %14 = getelementptr inbounds nuw %struct.RoleNameItem, ptr %13, i64 %indvars.iv
  store i32 %12, ptr %14, align 8
  %15 = tail call ptr @PQgetvalue(ptr noundef %2, i32 noundef %9, i32 noundef 1) #14
  %16 = tail call ptr @pg_strdup(ptr noundef %15) #14
  %17 = load ptr, ptr @rolenames, align 8
  %18 = getelementptr inbounds nuw %struct.RoleNameItem, ptr %17, i64 %indvars.iv, i32 1
  store ptr %16, ptr %18, align 8
  %indvars.iv.next = add nuw nsw i64 %indvars.iv, 1
  %19 = load i32, ptr @nrolenames, align 4
  %20 = sext i32 %19 to i64
  %21 = icmp slt i64 %indvars.iv.next, %20
  br i1 %21, label %.lr.ph, label %._crit_edge, !llvm.loop !37

._crit_edge:                                      ; preds = %.lr.ph, %1
  tail call void @PQclear(ptr noundef %2) #14
  ret void
}